#include <math.h>
#include <stdio.h>
#include <stdlib.h>
#include <string.h>

void main()
{
	int n,i,result=0;
	char c;

	scanf("%d",&n);
	getchar();
	for(i=0;i<n;i++){
		c=getchar();
		if(!(c=='_'||isalpha(c))){
			printf("%d\n",result);
			while(getchar()!='\n');
			continue;
		}

		while(1){
			if(!(c=='_'||isalnum(c))){
				result=0;
				while(getchar()!='\n');
				break;
			}
			else result=1;
			if((c=getchar())=='\n') break;
		}
		printf("%d\n",result);
		result=0;
	}
}